Certificate:
    Data:
        Version: 3 (0x2)
        Serial Number: 1 (0x1)
    Signature Algorithm: sha256WithRSAEncryption
        Issuer: O=_RPLC_ORG_NAME, OU=_RPLC_ORG_NAME Root CA, CN=_RPLC_ORG_NAME Root CA
        Validity
            Not Before: Aug 14 14:11:10 2018 GMT
            Not After : Aug 13 14:11:10 2028 GMT
        Subject: O=_RPLC_ORG_NAME, OU=_RPLC_ORG_NAME Root CA, CN=_RPLC_ORG_NAME Root CA
        Subject Public Key Info:
            Public Key Algorithm: rsaEncryption
                Public-Key: (2048 bit)
                Modulus:
                    00:9f:9c:93:1b:f0:a1:14:43:2c:36:f5:d9:7a:7a:
                    95:0f:57:2d:88:1d:65:2a:56:18:84:2f:05:76:92:
                    ed:82:87:74:e4:d8:4e:bb:71:ad:10:18:e5:e1:1b:
                    42:94:ac:e3:bf:bf:10:f8:f7:61:e4:4f:f7:ca:a3:
                    6c:59:6d:a4:b3:02:dd:cf:0e:1c:1a:88:86:e8:cc:
                    8e:79:29:74:98:4a:9d:a7:e6:57:4e:51:d5:69:3c:
                    8b:aa:64:79:2b:42:e7:06:57:4d:b5:97:21:e6:84:
                    38:6c:e4:8a:85:40:4d:dc:9a:86:9a:95:63:9a:7c:
                    6f:73:68:21:ad:ff:32:bc:58:80:12:c4:80:9d:88:
                    74:a0:b3:90:ba:20:15:c6:3c:9b:38:de:69:45:64:
                    46:a3:03:70:5c:70:ee:9a:a2:17:b6:1d:22:3c:05:
                    fe:0e:ec:51:53:18:ec:94:eb:db:ca:57:7a:47:a0:
                    4e:b2:55:f3:02:44:a1:3e:61:1d:52:2d:ae:7e:bb:
                    56:48:a6:28:33:26:f6:10:5c:c0:21:83:f9:4e:cf:
                    cd:a1:63:da:07:cf:db:be:8d:0c:f0:76:cf:93:93:
                    8a:d3:e0:67:2a:7c:4a:52:5a:c5:67:0c:49:e4:bb:
                    c2:43:59:97:09:9b:b4:52:e4:01:5d:c9:45:91:88:
                    f4:55
                Exponent: 65537 (0x10001)
        X509v3 extensions:
            X509v3 Key Usage: critical
                Certificate Sign, CRL Sign
            X509v3 Basic Constraints: critical
                CA:TRUE
            X509v3 Subject Key Identifier: 
                5D:28:2D:00:70:A8:3A:3D:94:54:AC:E5:F0:7A:53:B7:89:E6:33:E8
            X509v3 Authority Key Identifier: 
                keyid:5D:28:2D:00:70:A8:3A:3D:94:54:AC:E5:F0:7A:53:B7:89:E6:33:E8

    Signature Algorithm: sha256WithRSAEncryption
         36:7c:3e:b0:2b:b0:1d:57:d4:82:88:9d:e2:86:24:5c:1f:47:
         9b:67:36:1d:8f:3a:28:6b:b7:b9:60:26:d8:2b:21:1d:49:8f:
         71:55:e1:50:86:4a:44:9e:39:47:69:bf:98:54:62:c9:9d:db:
         df:73:66:e2:6d:ec:ec:df:ea:b7:f3:60:bf:da:57:ef:64:1f:
         e5:b4:54:8a:af:f2:09:58:2e:a3:96:05:a0:41:00:c2:b8:8a:
         41:cb:3f:35:f6:eb:dd:c9:4c:de:c6:9f:9b:39:93:7f:8b:9c:
         d2:84:c5:fd:7b:38:50:4c:0c:f2:28:64:5b:ad:33:7d:01:12:
         44:9d:2c:c9:58:c5:22:da:bc:dc:7c:9f:8e:e5:d6:b1:1f:4e:
         80:db:ea:b5:60:ca:42:d8:69:1e:e2:cc:f9:9f:57:78:5f:3a:
         a2:e8:ac:f4:89:d4:f0:17:4b:7b:31:94:f8:d1:28:d7:f8:50:
         81:23:6f:9c:87:f3:0a:bb:ce:65:6f:9d:bc:04:69:dc:e9:36:
         af:74:1c:58:53:13:c6:f9:e3:3b:7f:98:fc:ed:92:f5:ef:0e:
         44:8c:41:85:34:62:6a:c1:35:c0:cc:e5:38:f2:c6:f7:ac:c0:
         2a:8e:52:93:20:e7:4b:e4:74:c9:73:bd:16:9b:40:1f:fb:e4:
         ca:7e:3a:21
-----BEGIN CERTIFICATE-----
MIIDlDCCAnygAwIBAgIBATANBgkqhkiG9w0BAQsFADBbMRcwFQYDVQQKDA5fUlBM
Q19PUkdfTkFNRTEfMB0GA1UECwwWX1JQTENfT1JHX05BTUUgUm9vdCBDQTEfMB0G
A1UEAwwWX1JQTENfT1JHX05BTUUgUm9vdCBDQTAeFw0xODA4MTQxNDExMTBaFw0y
ODA4MTMxNDExMTBaMFsxFzAVBgNVBAoMDl9SUExDX09SR19OQU1FMR8wHQYDVQQL
DBZfUlBMQ19PUkdfTkFNRSBSb290IENBMR8wHQYDVQQDDBZfUlBMQ19PUkdfTkFN
RSBSb290IENBMIIBIjANBgkqhkiG9w0BAQEFAAOCAQ8AMIIBCgKCAQEAn5yTG/Ch
FEMsNvXZenqVD1ctiB1lKlYYhC8FdpLtgod05NhOu3GtEBjl4RtClKzjv78Q+Pdh
5E/3yqNsWW2kswLdzw4cGoiG6MyOeSl0mEqdp+ZXTlHVaTyLqmR5K0LnBldNtZch
5oQ4bOSKhUBN3JqGmpVjmnxvc2ghrf8yvFiAEsSAnYh0oLOQuiAVxjybON5pRWRG
owNwXHDumqIXth0iPAX+DuxRUxjslOvbyld6R6BOslXzAkShPmEdUi2ufrtWSKYo
Myb2EFzAIYP5Ts/NoWPaB8/bvo0M8HbPk5OK0+BnKnxKUlrFZwxJ5LvCQ1mXCZu0
UuQBXclFkYj0VQIDAQABo2MwYTAOBgNVHQ8BAf8EBAMCAQYwDwYDVR0TAQH/BAUw
AwEB/zAdBgNVHQ4EFgQUXSgtAHCoOj2UVKzl8HpTt4nmM+gwHwYDVR0jBBgwFoAU
XSgtAHCoOj2UVKzl8HpTt4nmM+gwDQYJKoZIhvcNAQELBQADggEBADZ8PrArsB1X
1IKIneKGJFwfR5tnNh2POihrt7lgJtgrIR1Jj3FV4VCGSkSeOUdpv5hUYsmd299z
ZuJt7Ozf6rfzYL/aV+9kH+W0VIqv8glYLqOWBaBBAMK4ikHLPzX2693JTN7Gn5s5
k3+LnNKExf17OFBMDPIoZFutM30BEkSdLMlYxSLavNx8n47l1rEfToDb6rVgykLY
aR7izPmfV3hfOqLorPSJ1PAXS3sxlPjRKNf4UIEjb5yH8wq7zmVvnbwEadzpNq90
HFhTE8b54zt/mPztkvXvDkSMQYU0YmrBNcDM5TjyxveswCqOUpMg50vkdMlzvRab
QB/75Mp+OiE=
-----END CERTIFICATE-----
