Certificate:
    Data:
        Version: 3 (0x2)
        Serial Number: 2 (0x2)
    Signature Algorithm: sha256WithRSAEncryption
        Issuer: O=_RPLC_ORG_NAME, OU=_RPLC_ORG_NAME Root CA, CN=_RPLC_ORG_NAME Root CA
        Validity
            Not Before: Aug 14 14:11:10 2018 GMT
            Not After : Aug 13 14:11:10 2028 GMT
        Subject: O=_RPLC_ORG_NAME, OU=_RPLC_ORG_NAME Signing CA, CN=_RPLC_ORG_NAME Signing CA
        Subject Public Key Info:
            Public Key Algorithm: rsaEncryption
                Public-Key: (2048 bit)
                Modulus:
                    00:ee:eb:56:19:bc:2e:24:83:28:50:42:c9:14:b4:
                    e4:2d:49:ae:19:31:15:88:9c:52:5f:42:f2:d0:81:
                    c4:ea:3f:d0:75:42:6b:86:36:76:6c:9b:fe:f6:81:
                    a0:c3:b4:10:ec:51:1a:1b:8d:b8:d5:b4:e3:10:8c:
                    0e:e0:25:b3:7f:dd:72:de:b9:7e:3a:e1:e1:a4:10:
                    a6:db:f4:b1:62:fe:5d:21:ff:b8:63:9f:9e:f5:fc:
                    ab:ac:06:92:36:b8:f0:df:c7:b3:5c:6d:18:9b:bd:
                    c3:03:38:e7:37:2f:3b:ee:96:dc:13:52:99:1d:dd:
                    0f:a1:b2:8e:4c:ce:c2:31:b3:65:21:b2:33:f7:b7:
                    63:30:67:d2:5a:ec:99:73:9d:e7:ab:fa:a4:ef:15:
                    ff:92:19:8c:aa:f7:7e:f6:db:1d:ab:a2:f4:e3:1d:
                    9f:8c:5a:bd:81:3c:a5:04:35:5c:c8:eb:b8:ae:ba:
                    e5:ba:b7:8f:08:d9:3b:12:13:55:5a:88:f7:ed:13:
                    8a:76:97:ad:ca:5f:2c:c0:21:e6:e4:c0:a5:5e:ee:
                    ba:8e:31:a5:78:33:ef:a4:31:5e:88:1c:96:a4:93:
                    a5:87:1d:7f:27:af:c0:cd:ae:39:50:cb:6d:fa:4b:
                    b1:e8:18:c9:b7:a9:cd:de:7b:2a:49:8c:2f:6e:a6:
                    1b:c5
                Exponent: 65537 (0x10001)
        X509v3 extensions:
            X509v3 Key Usage: critical
                Certificate Sign, CRL Sign
            X509v3 Basic Constraints: critical
                CA:TRUE, pathlen:0
            X509v3 Subject Key Identifier: 
                D5:11:9D:A2:3C:CC:56:38:65:C9:C3:06:AB:0E:16:06:02:C4:D2:48
            X509v3 Authority Key Identifier: 
                keyid:5D:28:2D:00:70:A8:3A:3D:94:54:AC:E5:F0:7A:53:B7:89:E6:33:E8

    Signature Algorithm: sha256WithRSAEncryption
         6e:86:64:05:4c:1c:33:57:59:33:8a:6f:04:e1:18:d1:8e:a7:
         5b:96:47:8b:11:a9:87:a2:c5:34:f5:ef:ea:e1:1d:5f:a6:2f:
         d9:fb:0e:05:c5:6b:e8:d4:f5:e1:bb:35:c1:1c:ed:65:49:46:
         a4:2d:fb:e0:70:07:91:7a:b6:20:c9:ea:6f:e3:9c:71:5d:f6:
         7b:e0:d5:4e:1c:8c:a3:08:39:85:17:25:7d:cc:b4:5c:91:6d:
         73:26:5e:31:3e:24:b7:2a:db:d0:7a:c5:2d:47:28:0d:2a:9c:
         55:0a:38:ca:2c:58:4d:ab:d8:30:c0:8c:ee:d6:1f:0d:82:6b:
         46:15:9d:21:26:ae:1a:4c:f3:19:62:16:09:6c:8a:2c:3c:9d:
         fa:29:02:7e:8e:d1:da:36:0e:eb:d7:fc:28:6c:4b:8e:30:28:
         48:0d:a4:73:6d:25:37:e7:42:c9:c2:d5:67:6c:ac:f8:4b:4b:
         28:a7:33:73:a3:7c:b6:dd:28:c7:b3:d1:8e:ef:7e:e8:95:56:
         01:1c:7c:47:7b:40:e1:ed:1e:a7:96:40:a9:ab:77:ca:b4:7b:
         5c:c3:1b:91:a8:d8:2f:12:4e:0d:a2:14:ea:a0:45:51:f6:f5:
         fc:40:bf:b6:b0:18:9f:38:5e:c0:46:75:06:fc:70:f2:b0:ed:
         69:73:87:ae
-----BEGIN CERTIFICATE-----
MIIDnTCCAoWgAwIBAgIBAjANBgkqhkiG9w0BAQsFADBbMRcwFQYDVQQKDA5fUlBM
Q19PUkdfTkFNRTEfMB0GA1UECwwWX1JQTENfT1JHX05BTUUgUm9vdCBDQTEfMB0G
A1UEAwwWX1JQTENfT1JHX05BTUUgUm9vdCBDQTAeFw0xODA4MTQxNDExMTBaFw0y
ODA4MTMxNDExMTBaMGExFzAVBgNVBAoMDl9SUExDX09SR19OQU1FMSIwIAYDVQQL
DBlfUlBMQ19PUkdfTkFNRSBTaWduaW5nIENBMSIwIAYDVQQDDBlfUlBMQ19PUkdf
TkFNRSBTaWduaW5nIENBMIIBIjANBgkqhkiG9w0BAQEFAAOCAQ8AMIIBCgKCAQEA
7utWGbwuJIMoUELJFLTkLUmuGTEViJxSX0Ly0IHE6j/QdUJrhjZ2bJv+9oGgw7QQ
7FEaG4241bTjEIwO4CWzf91y3rl+OuHhpBCm2/SxYv5dIf+4Y5+e9fyrrAaSNrjw
38ezXG0Ym73DAzjnNy877pbcE1KZHd0PobKOTM7CMbNlIbIz97djMGfSWuyZc53n
q/qk7xX/khmMqvd+9tsdq6L04x2fjFq9gTylBDVcyOu4rrrlurePCNk7EhNVWoj3
7ROKdpetyl8swCHm5MClXu66jjGleDPvpDFeiByWpJOlhx1/J6/Aza45UMtt+kux
6BjJt6nN3nsqSYwvbqYbxQIDAQABo2YwZDAOBgNVHQ8BAf8EBAMCAQYwEgYDVR0T
AQH/BAgwBgEB/wIBADAdBgNVHQ4EFgQU1RGdojzMVjhlycMGqw4WBgLE0kgwHwYD
VR0jBBgwFoAUXSgtAHCoOj2UVKzl8HpTt4nmM+gwDQYJKoZIhvcNAQELBQADggEB
AG6GZAVMHDNXWTOKbwThGNGOp1uWR4sRqYeixTT17+rhHV+mL9n7DgXFa+jU9eG7
NcEc7WVJRqQt++BwB5F6tiDJ6m/jnHFd9nvg1U4cjKMIOYUXJX3MtFyRbXMmXjE+
JLcq29B6xS1HKA0qnFUKOMosWE2r2DDAjO7WHw2Ca0YVnSEmrhpM8xliFglsiiw8
nfopAn6O0do2DuvX/ChsS44wKEgNpHNtJTfnQsnC1WdsrPhLSyinM3OjfLbdKMez
0Y7vfuiVVgEcfEd7QOHtHqeWQKmrd8q0e1zDG5Go2C8STg2iFOqgRVH29fxAv7aw
GJ84XsBGdQb8cPKw7Wlzh64=
-----END CERTIFICATE-----
